target datalayout = "e-m:e-p270:32:32-p271:32:32-p272:64:64-i64:64-i128:128-f80:128-n8:16:32:64-S128"
target triple = "x86_64-pc-linux-gnu"

%struct.ImVec2 = type { float, float }
%struct.ImGuiStyle = type { float, float, %struct.ImVec2, float, float, %struct.ImVec2, %struct.ImVec2, i32, float, float, float, float, %struct.ImVec2, float, float, %struct.ImVec2, %struct.ImVec2, %struct.ImVec2, %struct.ImVec2, float, float, float, float, float, float, float, float, float, float, float, float, float, %struct.ImVec2, i32, %struct.ImVec2, %struct.ImVec2, float, %struct.ImVec2, %struct.ImVec2, %struct.ImVec2, %struct.ImVec2, float, i8, i8, i8, float, float, [56 x %struct.ImVec4], float, float, float, i32, i32 }
%struct.ImVec4 = type { float, float, float, float }
%struct.ImGuiIO = type { i32, i32, %struct.ImVec2, float, float, ptr, ptr, ptr, ptr, float, i8, ptr, %struct.ImVec2, i8, i8, i8, i8, i8, i8, i8, i8, i8, i8, float, float, float, float, float, float, i8, i8, i8, i8, i8, i8, i8, i8, i8, i8, ptr, ptr, ptr, ptr, ptr, i8, i8, i8, i8, i8, i8, i8, float, i32, i32, i32, i32, %struct.ImVec2, ptr, %struct.ImVec2, [5 x i8], float, float, i32, i8, i8, i8, i8, i32, [154 x %struct.ImGuiKeyData], i8, %struct.ImVec2, [5 x %struct.ImVec2], [5 x double], [5 x i8], [5 x i8], [5 x i16], [5 x i16], [5 x i8], [5 x i8], [5 x i8], i8, i8, [5 x float], [5 x float], [5 x float], float, i8, i8, i8, i8, i16, %struct.ImVector }
%struct.ImGuiKeyData = type { i8, float, float, float }
%struct.ImVector = type { i32, i32, ptr }
%struct.ImGuiContext = type { i8, i8, %struct.ImGuiIO, %struct.ImGuiPlatformIO, %struct.ImGuiStyle, ptr, float, float, float, float, %struct.ImDrawListSharedData, double, i32, i32, i32, i8, i8, i8, i8, i8, ptr, [16 x i8], %struct.ImVector.1, %struct.ImVector.1, i32, i32, %struct.ImVector.2, %struct.ImVector.2, %struct.ImVector.2, %struct.ImVector.3, %struct.ImGuiStorage, i32, %struct.ImVec2, i32, ptr, ptr, ptr, ptr, ptr, ptr, %struct.ImVec2, i32, i32, float, %struct.ImVec2, %struct.ImVec2, i32, i32, i32, i32, i32, float, float, i8, i8, i8, i32, i32, float, i8, i8, i8, i8, i8, i8, i8, i8, %struct.ImVec2, ptr, i32, i32, i8, i8, ptr, i32, float, double, double, double, %struct.ImBitArray, [154 x %struct.ImGuiKeyOwnerData], %struct.ImGuiKeyRoutingTable, i32, i8, i32, i32, i32, i32, %struct.ImGuiNextItemData, %struct.ImGuiLastItemData, %struct.ImGuiNextWindowData, i8, i32, %struct.ImVector.6, %struct.ImVector.7, %struct.ImVector.8, %struct.ImVector.9, %struct.ImVector.10, %struct.ImVector.11, %struct.ImVector.12, %struct.ImVector.12, %struct.ImVector.13, %struct.ImVector.14, ptr, i32, i32, i32, i32, i32, i32, i32, %struct.ImVector.9, i32, float, i32, i32, i32, i64, i8, i8, i8, i8, i8, i8, i8, %struct.ImGuiNavItemData, i8, i8, i8, i32, i32, i32, i32, i32, i32, %struct.ImRect, %struct.ImRect, i32, i32, i32, %struct.ImGuiNavItemData, %struct.ImGuiNavItemData, %struct.ImGuiNavItemData, %struct.ImGuiNavItemData, i32, i32, i32, i32, i8, i8, i32, i32, ptr, ptr, ptr, float, float, i8, i32, %struct.ImVec2, %struct.ImVec2, float, i8, i8, i8, i32, i32, i32, [4 x i8], %struct.ImGuiPayload, %struct.ImRect, %struct.ImRect, i32, i32, float, i32, i32, i32, i32, %struct.ImVector.15, [16 x i8], i32, %struct.ImVector.16, ptr, i32, i32, %struct.ImVector.17, %struct.ImPool, %struct.ImVector.19, %struct.ImVector.20, ptr, %struct.ImPool.21, %struct.ImVector.23, %struct.ImVector.24, %struct.ImGuiBoxSelectState, ptr, i32, %struct.ImVector.25, %struct.ImPool.26, i32, i32, float, float, i32, i32, i32, float, %struct.ImVec2, %struct.ImGuiInputTextState, %struct.ImGuiInputTextDeactivatedState, %struct.ImFont, i32, %struct.ImGuiDataTypeStorage, i32, i32, i32, i32, i32, float, float, i32, %struct.ImVec4, %struct.ImGuiComboPreviewData, %struct.ImRect, i8, i16, float, float, float, i8, i8, float, float, float, i16, i16, i16, ptr, %struct.ImVector.28, %struct.ImVector.30, %struct.ImGuiTypingSelectState, %struct.ImGuiPlatformImeData, %struct.ImGuiPlatformImeData, i8, float, %struct.ImGuiTextBuffer, %struct.ImVector.31, %struct.ImChunkStream, %struct.ImChunkStream.32, %struct.ImVector.33, i32, [10 x ptr], i8, i32, ptr, %struct.ImGuiTextBuffer, ptr, ptr, float, i8, i32, i32, i32, ptr, ptr, %struct.ImVec2, i8, i32, %struct.ImGuiErrorRecoveryState, ptr, i32, i32, %struct.ImGuiTextBuffer, %struct.ImGuiTextIndex, i32, i32, i8, i8, i8, i32, i8, i8, i8, i32, float, %struct.ImVec4, %struct.ImGuiMetricsConfig, %struct.ImGuiIDStackTool, %struct.ImGuiDebugAllocInfo, [60 x float], i32, i32, float, i32, i32, i32, %struct.ImVector.28, [64 x i8] }
%struct.ImGuiPlatformIO = type <{ ptr, ptr, ptr, ptr, ptr, ptr, ptr, i16, [6 x i8] }>
%struct.ImDrawListSharedData = type { %struct.ImVec2, ptr, float, float, float, float, %struct.ImVec4, i32, %struct.ImVector.0, [48 x %struct.ImVec2], float, [64 x i8], ptr }
%struct.ImVector.0 = type { i32, i32, ptr }
%struct.ImVector.1 = type { i32, i32, ptr }
%struct.ImVector.2 = type { i32, i32, ptr }
%struct.ImVector.3 = type { i32, i32, ptr }
%struct.ImGuiStorage = type { %struct.ImVector.4 }
%struct.ImVector.4 = type { i32, i32, ptr }
%struct.ImBitArray = type { [5 x i32] }
%struct.ImGuiKeyOwnerData = type <{ i32, i32, i8, i8, [2 x i8] }>
%struct.ImGuiKeyRoutingTable = type { [154 x i16], %struct.ImVector.5, %struct.ImVector.5 }
%struct.ImVector.5 = type { i32, i32, ptr }
%struct.ImGuiNextItemData = type <{ i32, i32, i32, [4 x i8], i64, float, i32, i32, i8, i8, %struct.ImGuiDataTypeStorage, [2 x i8], i32, [4 x i8] }>
%struct.ImGuiLastItemData = type { i32, i32, i32, %struct.ImRect, %struct.ImRect, %struct.ImRect, %struct.ImRect, i32 }
%struct.ImGuiNextWindowData = type { i32, i32, i32, i32, %struct.ImVec2, %struct.ImVec2, %struct.ImVec2, %struct.ImVec2, %struct.ImVec2, i32, i8, %struct.ImRect, ptr, ptr, float, %struct.ImVec2, i32 }
%struct.ImVector.6 = type { i32, i32, ptr }
%struct.ImVector.7 = type { i32, i32, ptr }
%struct.ImVector.8 = type { i32, i32, ptr }
%struct.ImVector.10 = type { i32, i32, ptr }
%struct.ImVector.11 = type { i32, i32, ptr }
%struct.ImVector.12 = type { i32, i32, ptr }
%struct.ImVector.13 = type { i32, i32, ptr }
%struct.ImVector.14 = type { i32, i32, ptr }
%struct.ImVector.9 = type { i32, i32, ptr }
%struct.ImGuiNavItemData = type { ptr, i32, i32, %struct.ImRect, i32, float, float, float, i64 }
%struct.ImGuiPayload = type <{ ptr, i32, i32, i32, i32, [33 x i8], i8, i8, [5 x i8] }>
%struct.ImVector.15 = type { i32, i32, ptr }
%struct.ImVector.16 = type { i32, i32, ptr }
%struct.ImVector.17 = type { i32, i32, ptr }
%struct.ImPool = type { %struct.ImVector.18, %struct.ImGuiStorage, i32, i32 }
%struct.ImVector.18 = type { i32, i32, ptr }
%struct.ImVector.19 = type { i32, i32, ptr }
%struct.ImVector.20 = type { i32, i32, ptr }
%struct.ImPool.21 = type { %struct.ImVector.22, %struct.ImGuiStorage, i32, i32 }
%struct.ImVector.22 = type { i32, i32, ptr }
%struct.ImVector.23 = type { i32, i32, ptr }
%struct.ImVector.24 = type { i32, i32, ptr }
%struct.ImGuiBoxSelectState = type <{ i32, i8, i8, i8, i8, i8, i16, i8, %struct.ImVec2, %struct.ImVec2, %struct.ImVec2, [4 x i8], ptr, i8, [3 x i8], %struct.ImRect, %struct.ImRect, %struct.ImRect, [4 x i8] }>
%struct.ImVector.25 = type { i32, i32, ptr }
%struct.ImPool.26 = type { %struct.ImVector.27, %struct.ImGuiStorage, i32, i32 }
%struct.ImVector.27 = type { i32, i32, ptr }
%struct.ImGuiInputTextState = type <{ ptr, ptr, i32, i32, %struct.ImVector.28, %struct.ImVector.28, %struct.ImVector.28, i32, %struct.ImVec2, float, i8, i8, i8, i8, i32, i8, [3 x i8], i32, i32, [4 x i8] }>
%struct.ImGuiInputTextDeactivatedState = type { i32, %struct.ImVector.28 }
%struct.ImFont = type <{ %struct.ImVector.19, float, float, %struct.ImVector, %struct.ImVector.29, ptr, ptr, ptr, i16, i16, i16, i16, float, float, i8, [3 x i8], float, float, float, i32, [2 x i8], [2 x i8] }>
%struct.ImVector.29 = type { i32, i32, ptr }
%struct.ImGuiDataTypeStorage = type { [8 x i8] }
%struct.ImGuiComboPreviewData = type { %struct.ImRect, %struct.ImVec2, %struct.ImVec2, %struct.ImVec2, float, i32 }
%struct.ImRect = type { %struct.ImVec2, %struct.ImVec2 }
%struct.ImVector.30 = type { i32, i32, ptr }
%struct.ImGuiTypingSelectState = type <{ %struct.ImGuiTypingSelectRequest, [64 x i8], i32, i32, float, i8, [3 x i8] }>
%struct.ImGuiTypingSelectRequest = type { i32, i32, ptr, i8, i8, i8 }
%struct.ImGuiPlatformImeData = type { i8, %struct.ImVec2, float }
%struct.ImVector.31 = type { i32, i32, ptr }
%struct.ImChunkStream = type { %struct.ImVector.28 }
%struct.ImChunkStream.32 = type { %struct.ImVector.28 }
%struct.ImVector.33 = type { i32, i32, ptr }
%struct.ImGuiErrorRecoveryState = type { i16, i16, i16, i16, i16, i16, i16, i16, i16, i16, i16 }
%struct.ImGuiTextBuffer = type { %struct.ImVector.28 }
%struct.ImGuiTextIndex = type <{ %struct.ImVector.10, i32, [4 x i8] }>
%struct.ImGuiMetricsConfig = type { i8, i8, i8, i8, i8, i8, i8, i8, i8, i32, i32, i32, i32 }
%struct.ImGuiIDStackTool = type { i32, i32, i32, %struct.ImVector.34, i8, float }
%struct.ImVector.34 = type { i32, i32, ptr }
%struct.ImGuiDebugAllocInfo = type { i32, i32, i16, [6 x %struct.ImGuiDebugAllocEntry] }
%struct.ImGuiDebugAllocEntry = type { i32, i16, i16 }
%struct.ImVector.28 = type { i32, i32, ptr }

@GImGui = dso_local global ptr null, align 8
@_ZL21GImAllocatorAllocFunc = internal global ptr @_ZL13MallocWrappermPv, align 8
@_ZL20GImAllocatorFreeFunc = internal global ptr @_ZL11FreeWrapperPvS_, align 8
@_ZL20GImAllocatorUserData = internal global ptr null, align 8

; Function Attrs: mustprogress nounwind uwtable
define dso_local void @_ZN5ImGui14DebugAllocHookEP19ImGuiDebugAllocInfoiPvm(ptr noundef %0, i32 noundef %1, ptr noundef %2, i64 noundef %3) #1 {
  %5 = alloca ptr, align 8
  %6 = alloca i32, align 4
  %7 = alloca ptr, align 8
  %8 = alloca i64, align 8
  %9 = alloca ptr, align 8
  store ptr %0, ptr %5, align 8, !tbaa !938
  store i32 %1, ptr %6, align 4, !tbaa !117
  store ptr %2, ptr %7, align 8, !tbaa !293
  store i64 %3, ptr %8, align 8, !tbaa !290
  call void @llvm.lifetime.start.p0(i64 8, ptr %9) #16
  %10 = load ptr, ptr %5, align 8, !tbaa !938
  %11 = getelementptr inbounds nuw %struct.ImGuiDebugAllocInfo, ptr %10, i32 0, i32 3
  %12 = load ptr, ptr %5, align 8, !tbaa !938
  %13 = getelementptr inbounds nuw %struct.ImGuiDebugAllocInfo, ptr %12, i32 0, i32 2
  %14 = load i16, ptr %13, align 4, !tbaa !1048
  %15 = sext i16 %14 to i64
  %16 = getelementptr inbounds [6 x %struct.ImGuiDebugAllocEntry], ptr %11, i64 0, i64 %15
  store ptr %16, ptr %9, align 8, !tbaa !1049
  %17 = load ptr, ptr %9, align 8, !tbaa !1049
  %18 = getelementptr inbounds nuw %struct.ImGuiDebugAllocEntry, ptr %17, i32 0, i32 0
  %19 = load i32, ptr %18, align 4, !tbaa !1051
  %20 = load i32, ptr %6, align 4, !tbaa !117
  %21 = icmp ne i32 %19, %20
  br i1 %21, label %22, label %46

22:                                               ; preds = %4
  %23 = load ptr, ptr %5, align 8, !tbaa !938
  %24 = getelementptr inbounds nuw %struct.ImGuiDebugAllocInfo, ptr %23, i32 0, i32 2
  %25 = load i16, ptr %24, align 4, !tbaa !1048
  %26 = sext i16 %25 to i32
  %27 = add nsw i32 %26, 1
  %28 = srem i32 %27, 6
  %29 = trunc i32 %28 to i16
  %30 = load ptr, ptr %5, align 8, !tbaa !938
  %31 = getelementptr inbounds nuw %struct.ImGuiDebugAllocInfo, ptr %30, i32 0, i32 2
  store i16 %29, ptr %31, align 4, !tbaa !1048
  %32 = load ptr, ptr %5, align 8, !tbaa !938
  %33 = getelementptr inbounds nuw %struct.ImGuiDebugAllocInfo, ptr %32, i32 0, i32 3
  %34 = load ptr, ptr %5, align 8, !tbaa !938
  %35 = getelementptr inbounds nuw %struct.ImGuiDebugAllocInfo, ptr %34, i32 0, i32 2
  %36 = load i16, ptr %35, align 4, !tbaa !1048
  %37 = sext i16 %36 to i64
  %38 = getelementptr inbounds [6 x %struct.ImGuiDebugAllocEntry], ptr %33, i64 0, i64 %37
  store ptr %38, ptr %9, align 8, !tbaa !1049
  %39 = load i32, ptr %6, align 4, !tbaa !117
  %40 = load ptr, ptr %9, align 8, !tbaa !1049
  %41 = getelementptr inbounds nuw %struct.ImGuiDebugAllocEntry, ptr %40, i32 0, i32 0
  store i32 %39, ptr %41, align 4, !tbaa !1051
  %42 = load ptr, ptr %9, align 8, !tbaa !1049
  %43 = getelementptr inbounds nuw %struct.ImGuiDebugAllocEntry, ptr %42, i32 0, i32 2
  store i16 0, ptr %43, align 2, !tbaa !1053
  %44 = load ptr, ptr %9, align 8, !tbaa !1049
  %45 = getelementptr inbounds nuw %struct.ImGuiDebugAllocEntry, ptr %44, i32 0, i32 1
  store i16 0, ptr %45, align 4, !tbaa !1054
  br label %46

46:                                               ; preds = %22, %4
  %47 = load i64, ptr %8, align 8, !tbaa !290
  %48 = icmp ne i64 %47, -1
  br i1 %48, label %49, label %58

49:                                               ; preds = %46
  %50 = load ptr, ptr %9, align 8, !tbaa !1049
  %51 = getelementptr inbounds nuw %struct.ImGuiDebugAllocEntry, ptr %50, i32 0, i32 1
  %52 = load i16, ptr %51, align 4, !tbaa !1054
  %53 = add i16 %52, 1
  store i16 %53, ptr %51, align 4, !tbaa !1054
  %54 = load ptr, ptr %5, align 8, !tbaa !938
  %55 = getelementptr inbounds nuw %struct.ImGuiDebugAllocInfo, ptr %54, i32 0, i32 0
  %56 = load i32, ptr %55, align 4, !tbaa !1055
  %57 = add nsw i32 %56, 1
  store i32 %57, ptr %55, align 4, !tbaa !1055
  br label %67

58:                                               ; preds = %46
  %59 = load ptr, ptr %9, align 8, !tbaa !1049
  %60 = getelementptr inbounds nuw %struct.ImGuiDebugAllocEntry, ptr %59, i32 0, i32 2
  %61 = load i16, ptr %60, align 2, !tbaa !1053
  %62 = add i16 %61, 1
  store i16 %62, ptr %60, align 2, !tbaa !1053
  %63 = load ptr, ptr %5, align 8, !tbaa !938
  %64 = getelementptr inbounds nuw %struct.ImGuiDebugAllocInfo, ptr %63, i32 0, i32 1
  %65 = load i32, ptr %64, align 4, !tbaa !1056
  %66 = add nsw i32 %65, 1
  store i32 %66, ptr %64, align 4, !tbaa !1056
  br label %67

67:                                               ; preds = %58, %49
  call void @llvm.lifetime.end.p0(i64 8, ptr %9) #16
  ret void
}

; Function Attrs: mustprogress uwtable
define dso_local noundef ptr @_ZN5ImGui8MemAllocEm(i64 noundef %0) #0 {
  %2 = alloca i64, align 8
  %3 = alloca ptr, align 8
  %4 = alloca ptr, align 8
  store i64 %0, ptr %2, align 8, !tbaa !290
  call void @llvm.lifetime.start.p0(i64 8, ptr %3) #16
  %5 = load ptr, ptr @_ZL21GImAllocatorAllocFunc, align 8, !tbaa !293
  %6 = load i64, ptr %2, align 8, !tbaa !290
  %7 = load ptr, ptr @_ZL20GImAllocatorUserData, align 8, !tbaa !293
  %8 = call noundef ptr %5(i64 noundef %6, ptr noundef %7)
  store ptr %8, ptr %3, align 8, !tbaa !293
  call void @llvm.lifetime.start.p0(i64 8, ptr %4) #16
  %9 = load ptr, ptr @GImGui, align 8, !tbaa !133
  store ptr %9, ptr %4, align 8, !tbaa !133
  %10 = load ptr, ptr %4, align 8, !tbaa !133
  %11 = icmp ne ptr %10, null
  br i1 %11, label %12, label %20

12:                                               ; preds = %1
  %13 = load ptr, ptr %4, align 8, !tbaa !133
  %14 = getelementptr inbounds nuw %struct.ImGuiContext, ptr %13, i32 0, i32 288
  %15 = load ptr, ptr %4, align 8, !tbaa !133
  %16 = getelementptr inbounds nuw %struct.ImGuiContext, ptr %15, i32 0, i32 12
  %17 = load i32, ptr %16, align 8, !tbaa !294
  %18 = load ptr, ptr %3, align 8, !tbaa !293
  %19 = load i64, ptr %2, align 8, !tbaa !290
  call void @_ZN5ImGui14DebugAllocHookEP19ImGuiDebugAllocInfoiPvm(ptr noundef %14, i32 noundef %17, ptr noundef %18, i64 noundef %19)
  br label %20

20:                                               ; preds = %12, %1
  call void @llvm.lifetime.end.p0(i64 8, ptr %4) #16
  %21 = load ptr, ptr %3, align 8, !tbaa !293
  call void @llvm.lifetime.end.p0(i64 8, ptr %3) #16
  ret ptr %21
}

; Function Attrs: mustprogress uwtable
define dso_local void @_ZN5ImGui7MemFreeEPv(ptr noundef %0) #0 {
  %2 = alloca ptr, align 8
  %3 = alloca ptr, align 8
  store ptr %0, ptr %2, align 8, !tbaa !293
  %4 = load ptr, ptr %2, align 8, !tbaa !293
  %5 = icmp ne ptr %4, null
  br i1 %5, label %6, label %18

6:                                                ; preds = %1
  call void @llvm.lifetime.start.p0(i64 8, ptr %3) #16
  %7 = load ptr, ptr @GImGui, align 8, !tbaa !133
  store ptr %7, ptr %3, align 8, !tbaa !133
  %8 = load ptr, ptr %3, align 8, !tbaa !133
  %9 = icmp ne ptr %8, null
  br i1 %9, label %10, label %17

10:                                               ; preds = %6
  %11 = load ptr, ptr %3, align 8, !tbaa !133
  %12 = getelementptr inbounds nuw %struct.ImGuiContext, ptr %11, i32 0, i32 288
  %13 = load ptr, ptr %3, align 8, !tbaa !133
  %14 = getelementptr inbounds nuw %struct.ImGuiContext, ptr %13, i32 0, i32 12
  %15 = load i32, ptr %14, align 8, !tbaa !294
  %16 = load ptr, ptr %2, align 8, !tbaa !293
  call void @_ZN5ImGui14DebugAllocHookEP19ImGuiDebugAllocInfoiPvm(ptr noundef %12, i32 noundef %15, ptr noundef %16, i64 noundef -1)
  br label %17

17:                                               ; preds = %10, %6
  call void @llvm.lifetime.end.p0(i64 8, ptr %3) #16
  br label %18

18:                                               ; preds = %17, %1
  %19 = load ptr, ptr @_ZL20GImAllocatorFreeFunc, align 8, !tbaa !293
  %20 = load ptr, ptr %2, align 8, !tbaa !293
  %21 = load ptr, ptr @_ZL20GImAllocatorUserData, align 8, !tbaa !293
  call void %19(ptr noundef %20, ptr noundef %21)
  ret void
}

; Function Attrs: mustprogress uwtable
define dso_local noundef ptr @_Z11ImStrdupcpyPcPmPKc(ptr noundef %0, ptr noundef %1, ptr noundef %2) #0 {
  %4 = alloca ptr, align 8
  %5 = alloca ptr, align 8
  %6 = alloca ptr, align 8
  %7 = alloca i64, align 8
  %8 = alloca i64, align 8
  store ptr %0, ptr %4, align 8, !tbaa !254
  store ptr %1, ptr %5, align 8, !tbaa !295
  store ptr %2, ptr %6, align 8, !tbaa !254
  call void @llvm.lifetime.start.p0(i64 8, ptr %7) #16
  %9 = load ptr, ptr %5, align 8, !tbaa !295
  %10 = icmp ne ptr %9, null
  br i1 %10, label %11, label %14

11:                                               ; preds = %3
  %12 = load ptr, ptr %5, align 8, !tbaa !295
  %13 = load i64, ptr %12, align 8, !tbaa !290
  br label %18

14:                                               ; preds = %3
  %15 = load ptr, ptr %4, align 8, !tbaa !254
  %16 = call i64 @strlen(ptr noundef %15) #20
  %17 = add i64 %16, 1
  br label %18

18:                                               ; preds = %14, %11
  %19 = phi i64 [ %13, %11 ], [ %17, %14 ]
  store i64 %19, ptr %7, align 8, !tbaa !290
  call void @llvm.lifetime.start.p0(i64 8, ptr %8) #16
  %20 = load ptr, ptr %6, align 8, !tbaa !254
  %21 = call i64 @strlen(ptr noundef %20) #20
  %22 = add i64 %21, 1
  store i64 %22, ptr %8, align 8, !tbaa !290
  %23 = load i64, ptr %7, align 8, !tbaa !290
  %24 = load i64, ptr %8, align 8, !tbaa !290
  %25 = icmp ult i64 %23, %24
  br i1 %25, label %26, label %36

26:                                               ; preds = %18
  %27 = load ptr, ptr %4, align 8, !tbaa !254
  call void @_ZN5ImGui7MemFreeEPv(ptr noundef %27)
  %28 = load i64, ptr %8, align 8, !tbaa !290
  %29 = call noundef ptr @_ZN5ImGui8MemAllocEm(i64 noundef %28)
  store ptr %29, ptr %4, align 8, !tbaa !254
  %30 = load ptr, ptr %5, align 8, !tbaa !295
  %31 = icmp ne ptr %30, null
  br i1 %31, label %32, label %35

32:                                               ; preds = %26
  %33 = load i64, ptr %8, align 8, !tbaa !290
  %34 = load ptr, ptr %5, align 8, !tbaa !295
  store i64 %33, ptr %34, align 8, !tbaa !290
  br label %35

35:                                               ; preds = %32, %26
  br label %36

36:                                               ; preds = %35, %18
  %37 = load ptr, ptr %4, align 8, !tbaa !254
  %38 = load ptr, ptr %6, align 8, !tbaa !254
  %39 = load i64, ptr %8, align 8, !tbaa !290
  call void @llvm.memcpy.p0.p0.i64(ptr align 1 %37, ptr align 1 %38, i64 %39, i1 false)
  call void @llvm.lifetime.end.p0(i64 8, ptr %8) #16
  call void @llvm.lifetime.end.p0(i64 8, ptr %7) #16
  ret ptr %37
}