; Function Attrs: mustprogress uwtable
define dso_local noundef ptr @_Z11ImStrdupcpyPcPmPKc(ptr noundef %0, ptr noundef captures(address_is_null) %1, ptr noundef readonly captures(none) %2) local_unnamed_addr #0 {
  %.not = icmp eq ptr %1, null
  br i1 %.not, label %6, label %4

4:                                                ; preds = %3
  %5 = load i64, ptr %1, align 8, !tbaa !245
  br label %9

6:                                                ; preds = %3
  %7 = tail call i64 @strlen(ptr noundef nonnull dereferenceable(1) %0) #62
  %8 = add i64 %7, 1
  br label %9

9:                                                ; preds = %6, %4
  %10 = phi i64 [ %5, %4 ], [ %8, %6 ]
  %11 = tail call i64 @strlen(ptr noundef nonnull dereferenceable(1) %2) #62
  %12 = add i64 %11, 1
  %13 = icmp ult i64 %10, %12
  br i1 %13, label %14, label %82

14:                                               ; preds = %9
  %.not.i = icmp eq ptr %0, null
  br i1 %.not.i, label %_ZN5ImGui7MemFreeEPv.exit, label %15

15:                                               ; preds = %14
  %16 = load ptr, ptr @GImGui, align 8, !tbaa !211
  %.not7.i = icmp eq ptr %16, null
  br i1 %.not7.i, label %_ZN5ImGui7MemFreeEPv.exit, label %17

17:                                               ; preds = %15
  %18 = getelementptr inbounds nuw i8, ptr %16, i64 4744
  %19 = load i32, ptr %18, align 8, !tbaa !212
  %20 = getelementptr inbounds nuw i8, ptr %16, i64 10020
  %21 = getelementptr inbounds nuw i8, ptr %16, i64 10016
  %22 = load i16, ptr %21, align 4, !tbaa !213
  %23 = sext i16 %22 to i64
  %24 = getelementptr inbounds [6 x %struct.ImGuiDebugAllocEntry], ptr %20, i64 0, i64 %23
  %25 = load i32, ptr %24, align 4, !tbaa !214
  %.not.i.i = icmp eq i32 %25, %19
  br i1 %.not.i.i, label %_ZN5ImGui14DebugAllocHookEP19ImGuiDebugAllocInfoiPvm.exit.i, label %26

26:                                               ; preds = %17
  %27 = sext i16 %22 to i32
  %28 = add nsw i32 %27, 1
  %29 = srem i32 %28, 6
  %30 = trunc nsw i32 %29 to i16
  store i16 %30, ptr %21, align 4, !tbaa !213
  %31 = sext i32 %29 to i64
  %32 = getelementptr inbounds [6 x %struct.ImGuiDebugAllocEntry], ptr %20, i64 0, i64 %31
  store i32 %19, ptr %32, align 4, !tbaa !214
  %33 = getelementptr inbounds nuw i8, ptr %32, i64 6
  store i16 0, ptr %33, align 2, !tbaa !216
  %34 = getelementptr inbounds nuw i8, ptr %32, i64 4
  store i16 0, ptr %34, align 4, !tbaa !217
  br label %_ZN5ImGui14DebugAllocHookEP19ImGuiDebugAllocInfoiPvm.exit.i

_ZN5ImGui14DebugAllocHookEP19ImGuiDebugAllocInfoiPvm.exit.i: ; preds = %26, %17
  %35 = phi i64 [ %31, %26 ], [ %23, %17 ]
  %.idx.i = shl nsw i64 %35, 3
  %.offs.i = or disjoint i64 %.idx.i, 6
  %36 = getelementptr inbounds i8, ptr %20, i64 %.offs.i
  %37 = load i16, ptr %36, align 2, !tbaa !216
  %38 = add i16 %37, 1
  store i16 %38, ptr %36, align 2, !tbaa !216
  %39 = getelementptr inbounds nuw i8, ptr %16, i64 10012
  %40 = load i32, ptr %39, align 4, !tbaa !219
  %41 = add nsw i32 %40, 1
  store i32 %41, ptr %39, align 4, !tbaa !219
  br label %_ZN5ImGui7MemFreeEPv.exit

_ZN5ImGui7MemFreeEPv.exit:                        ; preds = %14, %15, %_ZN5ImGui14DebugAllocHookEP19ImGuiDebugAllocInfoiPvm.exit.i
  %42 = load ptr, ptr @_ZL20GImAllocatorFreeFunc, align 8, !tbaa !210
  %43 = load ptr, ptr @_ZL20GImAllocatorUserData, align 8, !tbaa !210
  tail call void %42(ptr noundef %0, ptr noundef %43)
  %44 = load ptr, ptr @_ZL21GImAllocatorAllocFunc, align 8, !tbaa !210
  %45 = load ptr, ptr @_ZL20GImAllocatorUserData, align 8, !tbaa !210
  %46 = tail call noundef ptr %44(i64 noundef %12, ptr noundef %45)
  %47 = load ptr, ptr @GImGui, align 8, !tbaa !211
  %.not.i15 = icmp eq ptr %47, null
  br i1 %.not.i15, label %_ZN5ImGui8MemAllocEm.exit, label %48

48:                                               ; preds = %_ZN5ImGui7MemFreeEPv.exit
  %49 = getelementptr inbounds nuw i8, ptr %47, i64 10008
  %50 = getelementptr inbounds nuw i8, ptr %47, i64 4744
  %51 = load i32, ptr %50, align 8, !tbaa !212
  %52 = getelementptr inbounds nuw i8, ptr %47, i64 10020
  %53 = getelementptr inbounds nuw i8, ptr %47, i64 10016
  %54 = load i16, ptr %53, align 4, !tbaa !213
  %55 = sext i16 %54 to i64
  %56 = getelementptr inbounds [6 x %struct.ImGuiDebugAllocEntry], ptr %52, i64 0, i64 %55
  %57 = load i32, ptr %56, align 4, !tbaa !214
  %.not.i.i16 = icmp eq i32 %57, %51
  br i1 %.not.i.i16, label %67, label %58

58:                                               ; preds = %48
  %59 = sext i16 %54 to i32
  %60 = add nsw i32 %59, 1
  %61 = srem i32 %60, 6
  %62 = trunc nsw i32 %61 to i16
  store i16 %62, ptr %53, align 4, !tbaa !213
  %63 = sext i32 %61 to i64
  %64 = getelementptr inbounds [6 x %struct.ImGuiDebugAllocEntry], ptr %52, i64 0, i64 %63
  store i32 %51, ptr %64, align 4, !tbaa !214
  %65 = getelementptr inbounds nuw i8, ptr %64, i64 6
  store i16 0, ptr %65, align 2, !tbaa !216
  %66 = getelementptr inbounds nuw i8, ptr %64, i64 4
  store i16 0, ptr %66, align 4, !tbaa !217
  br label %67

67:                                               ; preds = %58, %48
  %.0.i.i = phi ptr [ %64, %58 ], [ %56, %48 ]
  %.not17.i.i = icmp eq i64 %12, -1
  br i1 %.not17.i.i, label %74, label %68

68:                                               ; preds = %67
  %69 = getelementptr inbounds nuw i8, ptr %.0.i.i, i64 4
  %70 = load i16, ptr %69, align 4, !tbaa !217
  %71 = add i16 %70, 1
  store i16 %71, ptr %69, align 4, !tbaa !217
  %72 = load i32, ptr %49, align 4, !tbaa !218
  %73 = add nsw i32 %72, 1
  store i32 %73, ptr %49, align 4, !tbaa !218
  br label %_ZN5ImGui8MemAllocEm.exit

74:                                               ; preds = %67
  %75 = getelementptr inbounds nuw i8, ptr %.0.i.i, i64 6
  %76 = load i16, ptr %75, align 2, !tbaa !216
  %77 = add i16 %76, 1
  store i16 %77, ptr %75, align 2, !tbaa !216
  %78 = getelementptr inbounds nuw i8, ptr %47, i64 10012
  %79 = load i32, ptr %78, align 4, !tbaa !219
  %80 = add nsw i32 %79, 1
  store i32 %80, ptr %78, align 4, !tbaa !219
  br label %_ZN5ImGui8MemAllocEm.exit

_ZN5ImGui8MemAllocEm.exit:                        ; preds = %_ZN5ImGui7MemFreeEPv.exit, %68, %74
  br i1 %.not, label %82, label %81

81:                                               ; preds = %_ZN5ImGui8MemAllocEm.exit
  store i64 %12, ptr %1, align 8, !tbaa !245
  br label %82

82:                                               ; preds = %_ZN5ImGui8MemAllocEm.exit, %81, %9
  %.0 = phi ptr [ %46, %81 ], [ %46, %_ZN5ImGui8MemAllocEm.exit ], [ %0, %9 ]
  tail call void @llvm.memcpy.p0.p0.i64(ptr align 1 %.0, ptr nonnull align 1 %2, i64 %12, i1 false)
  ret ptr %.0
}